target datalayout = "e-m:e-p270:32:32-p271:32:32-p272:64:64-i64:64-i128:128-f80:128-n8:16:32:64-S128"
target triple = "x86_64-pc-linux-gnu"

%struct.FlashSV2Context = type { ptr, ptr, ptr, ptr, ptr, ptr, ptr, i32, ptr, ptr, i32, i32, i32, i32, i32, i32, i32, i64, i32, i32, i32, i32, i8, i8, i8, %struct.Palette, %struct.FFZStream }
%struct.Palette = type { [128 x i32], [32768 x i8] }
%struct.FFZStream = type { %struct.z_stream_s, i32 }
%struct.z_stream_s = type { ptr, i32, i64, ptr, i32, i64, ptr, ptr, ptr, ptr, ptr, i32, i64, i64 }

@.str.5 = private unnamed_addr constant [27 x i8] c"Memory allocation failed.\0A\00", align 1
@.str.6 = private unnamed_addr constant [34 x i8] c"Could not allocate block buffer.\0A\00", align 1

; Function Attrs: nounwind uwtable
define internal i32 @update_block_dimensions(ptr noundef %0, i32 noundef %1, i32 noundef %2) #1 {
  %4 = alloca i32, align 4
  %5 = alloca ptr, align 8
  %6 = alloca i32, align 4
  %7 = alloca i32, align 4
  store ptr %0, ptr %5, align 8, !tbaa !29
  store i32 %1, ptr %6, align 4, !tbaa !42
  store i32 %2, ptr %7, align 4, !tbaa !42
  %8 = load i32, ptr %6, align 4, !tbaa !42
  %9 = load ptr, ptr %5, align 8, !tbaa !29
  %10 = getelementptr inbounds nuw %struct.FlashSV2Context, ptr %9, i32 0, i32 20
  store i32 %8, ptr %10, align 8, !tbaa !69
  %11 = load i32, ptr %7, align 4, !tbaa !42
  %12 = load ptr, ptr %5, align 8, !tbaa !29
  %13 = getelementptr inbounds nuw %struct.FlashSV2Context, ptr %12, i32 0, i32 21
  store i32 %11, ptr %13, align 4, !tbaa !70
  %14 = load ptr, ptr %5, align 8, !tbaa !29
  %15 = getelementptr inbounds nuw %struct.FlashSV2Context, ptr %14, i32 0, i32 19
  %16 = load i32, ptr %15, align 4, !tbaa !45
  %17 = load ptr, ptr %5, align 8, !tbaa !29
  %18 = getelementptr inbounds nuw %struct.FlashSV2Context, ptr %17, i32 0, i32 21
  %19 = load i32, ptr %18, align 4, !tbaa !70
  %20 = add nsw i32 %16, %19
  %21 = sub nsw i32 %20, 1
  %22 = load ptr, ptr %5, align 8, !tbaa !29
  %23 = getelementptr inbounds nuw %struct.FlashSV2Context, ptr %22, i32 0, i32 21
  %24 = load i32, ptr %23, align 4, !tbaa !70
  %25 = sdiv i32 %21, %24
  %26 = load ptr, ptr %5, align 8, !tbaa !29
  %27 = getelementptr inbounds nuw %struct.FlashSV2Context, ptr %26, i32 0, i32 15
  store i32 %25, ptr %27, align 4, !tbaa !71
  %28 = load ptr, ptr %5, align 8, !tbaa !29
  %29 = getelementptr inbounds nuw %struct.FlashSV2Context, ptr %28, i32 0, i32 18
  %30 = load i32, ptr %29, align 8, !tbaa !44
  %31 = load ptr, ptr %5, align 8, !tbaa !29
  %32 = getelementptr inbounds nuw %struct.FlashSV2Context, ptr %31, i32 0, i32 20
  %33 = load i32, ptr %32, align 8, !tbaa !69
  %34 = add nsw i32 %30, %33
  %35 = sub nsw i32 %34, 1
  %36 = load ptr, ptr %5, align 8, !tbaa !29
  %37 = getelementptr inbounds nuw %struct.FlashSV2Context, ptr %36, i32 0, i32 20
  %38 = load i32, ptr %37, align 8, !tbaa !69
  %39 = sdiv i32 %35, %38
  %40 = load ptr, ptr %5, align 8, !tbaa !29
  %41 = getelementptr inbounds nuw %struct.FlashSV2Context, ptr %40, i32 0, i32 16
  store i32 %39, ptr %41, align 8, !tbaa !72
  %42 = load ptr, ptr %5, align 8, !tbaa !29
  %43 = getelementptr inbounds nuw %struct.FlashSV2Context, ptr %42, i32 0, i32 15
  %44 = load i32, ptr %43, align 4, !tbaa !71
  %45 = load ptr, ptr %5, align 8, !tbaa !29
  %46 = getelementptr inbounds nuw %struct.FlashSV2Context, ptr %45, i32 0, i32 16
  %47 = load i32, ptr %46, align 8, !tbaa !72
  %48 = mul nsw i32 %44, %47
  %49 = sext i32 %48 to i64
  %50 = load ptr, ptr %5, align 8, !tbaa !29
  %51 = getelementptr inbounds nuw %struct.FlashSV2Context, ptr %50, i32 0, i32 11
  %52 = load i32, ptr %51, align 4, !tbaa !73
  %53 = sext i32 %52 to i64
  %54 = udiv i64 %53, 56
  %55 = icmp ugt i64 %49, %54
  br i1 %55, label %56, label %113

56:                                               ; preds = %3
  %57 = load ptr, ptr %5, align 8, !tbaa !29
  %58 = getelementptr inbounds nuw %struct.FlashSV2Context, ptr %57, i32 0, i32 8
  %59 = load ptr, ptr %58, align 8, !tbaa !74
  %60 = load ptr, ptr %5, align 8, !tbaa !29
  %61 = getelementptr inbounds nuw %struct.FlashSV2Context, ptr %60, i32 0, i32 15
  %62 = load i32, ptr %61, align 4, !tbaa !71
  %63 = sext i32 %62 to i64
  %64 = load ptr, ptr %5, align 8, !tbaa !29
  %65 = getelementptr inbounds nuw %struct.FlashSV2Context, ptr %64, i32 0, i32 16
  %66 = load i32, ptr %65, align 8, !tbaa !72
  %67 = sext i32 %66 to i64
  %68 = mul i64 %67, 56
  %69 = call ptr @av_realloc_array(ptr noundef %59, i64 noundef %63, i64 noundef %68)
  %70 = load ptr, ptr %5, align 8, !tbaa !29
  %71 = getelementptr inbounds nuw %struct.FlashSV2Context, ptr %70, i32 0, i32 8
  store ptr %69, ptr %71, align 8, !tbaa !74
  %72 = load ptr, ptr %5, align 8, !tbaa !29
  %73 = getelementptr inbounds nuw %struct.FlashSV2Context, ptr %72, i32 0, i32 9
  %74 = load ptr, ptr %73, align 8, !tbaa !75
  %75 = load ptr, ptr %5, align 8, !tbaa !29
  %76 = getelementptr inbounds nuw %struct.FlashSV2Context, ptr %75, i32 0, i32 16
  %77 = load i32, ptr %76, align 8, !tbaa !72
  %78 = sext i32 %77 to i64
  %79 = load ptr, ptr %5, align 8, !tbaa !29
  %80 = getelementptr inbounds nuw %struct.FlashSV2Context, ptr %79, i32 0, i32 15
  %81 = load i32, ptr %80, align 4, !tbaa !71
  %82 = sext i32 %81 to i64
  %83 = mul i64 %82, 56
  %84 = call ptr @av_realloc_array(ptr noundef %74, i64 noundef %78, i64 noundef %83)
  %85 = load ptr, ptr %5, align 8, !tbaa !29
  %86 = getelementptr inbounds nuw %struct.FlashSV2Context, ptr %85, i32 0, i32 9
  store ptr %84, ptr %86, align 8, !tbaa !75
  %87 = load ptr, ptr %5, align 8, !tbaa !29
  %88 = getelementptr inbounds nuw %struct.FlashSV2Context, ptr %87, i32 0, i32 8
  %89 = load ptr, ptr %88, align 8, !tbaa !74
  %90 = icmp ne ptr %89, null
  br i1 %90, label %91, label %96

91:                                               ; preds = %56
  %92 = load ptr, ptr %5, align 8, !tbaa !29
  %93 = getelementptr inbounds nuw %struct.FlashSV2Context, ptr %92, i32 0, i32 9
  %94 = load ptr, ptr %93, align 8, !tbaa !75
  %95 = icmp ne ptr %94, null
  br i1 %95, label %100, label %96

96:                                               ; preds = %91, %56
  %97 = load ptr, ptr %5, align 8, !tbaa !29
  %98 = getelementptr inbounds nuw %struct.FlashSV2Context, ptr %97, i32 0, i32 0
  %99 = load ptr, ptr %98, align 8, !tbaa !31
  call void (ptr, i32, ptr, ...) @av_log(ptr noundef %99, i32 noundef 16, ptr noundef @.str.5)
  store i32 -12, ptr %4, align 4
  br label %149

100:                                              ; preds = %91
  %101 = load ptr, ptr %5, align 8, !tbaa !29
  %102 = getelementptr inbounds nuw %struct.FlashSV2Context, ptr %101, i32 0, i32 15
  %103 = load i32, ptr %102, align 4, !tbaa !71
  %104 = load ptr, ptr %5, align 8, !tbaa !29
  %105 = getelementptr inbounds nuw %struct.FlashSV2Context, ptr %104, i32 0, i32 16
  %106 = load i32, ptr %105, align 8, !tbaa !72
  %107 = mul nsw i32 %103, %106
  %108 = sext i32 %107 to i64
  %109 = mul i64 %108, 56
  %110 = trunc i64 %109 to i32
  %111 = load ptr, ptr %5, align 8, !tbaa !29
  %112 = getelementptr inbounds nuw %struct.FlashSV2Context, ptr %111, i32 0, i32 11
  store i32 %110, ptr %112, align 4, !tbaa !73
  br label %113

113:                                              ; preds = %100, %3
  %114 = load ptr, ptr %5, align 8, !tbaa !29
  %115 = load ptr, ptr %5, align 8, !tbaa !29
  %116 = getelementptr inbounds nuw %struct.FlashSV2Context, ptr %115, i32 0, i32 8
  %117 = load ptr, ptr %116, align 8, !tbaa !74
  %118 = load ptr, ptr %5, align 8, !tbaa !29
  %119 = getelementptr inbounds nuw %struct.FlashSV2Context, ptr %118, i32 0, i32 3
  %120 = load ptr, ptr %119, align 8, !tbaa !47
  %121 = load ptr, ptr %5, align 8, !tbaa !29
  %122 = getelementptr inbounds nuw %struct.FlashSV2Context, ptr %121, i32 0, i32 5
  %123 = load ptr, ptr %122, align 8, !tbaa !49
  call void @init_blocks(ptr noundef %114, ptr noundef %117, ptr noundef %120, ptr noundef %123)
  %124 = load ptr, ptr %5, align 8, !tbaa !29
  %125 = load ptr, ptr %5, align 8, !tbaa !29
  %126 = getelementptr inbounds nuw %struct.FlashSV2Context, ptr %125, i32 0, i32 9
  %127 = load ptr, ptr %126, align 8, !tbaa !75
  %128 = load ptr, ptr %5, align 8, !tbaa !29
  %129 = getelementptr inbounds nuw %struct.FlashSV2Context, ptr %128, i32 0, i32 4
  %130 = load ptr, ptr %129, align 8, !tbaa !48
  call void @init_blocks(ptr noundef %124, ptr noundef %127, ptr noundef %130, ptr noundef null)
  %131 = load ptr, ptr %5, align 8, !tbaa !29
  %132 = getelementptr inbounds nuw %struct.FlashSV2Context, ptr %131, i32 0, i32 6
  %133 = load ptr, ptr %5, align 8, !tbaa !29
  %134 = getelementptr inbounds nuw %struct.FlashSV2Context, ptr %133, i32 0, i32 7
  %135 = load i32, ptr %6, align 4, !tbaa !42
  %136 = load i32, ptr %7, align 4, !tbaa !42
  %137 = mul nsw i32 %135, %136
  %138 = mul nsw i32 %137, 6
  %139 = sext i32 %138 to i64
  call void @av_fast_malloc(ptr noundef %132, ptr noundef %134, i64 noundef %139)
  %140 = load ptr, ptr %5, align 8, !tbaa !29
  %141 = getelementptr inbounds nuw %struct.FlashSV2Context, ptr %140, i32 0, i32 6
  %142 = load ptr, ptr %141, align 8, !tbaa !76
  %143 = icmp ne ptr %142, null
  br i1 %143, label %148, label %144

144:                                              ; preds = %113
  %145 = load ptr, ptr %5, align 8, !tbaa !29
  %146 = getelementptr inbounds nuw %struct.FlashSV2Context, ptr %145, i32 0, i32 0
  %147 = load ptr, ptr %146, align 8, !tbaa !31
  call void (ptr, i32, ptr, ...) @av_log(ptr noundef %147, i32 noundef 16, ptr noundef @.str.6)
  store i32 -12, ptr %4, align 4
  br label %149

148:                                              ; preds = %113
  store i32 0, ptr %4, align 4
  br label %149

149:                                              ; preds = %148, %144, %96
  %150 = load i32, ptr %4, align 4
  ret i32 %150
}