; Function Attrs: nounwind uwtable
define internal fastcc range(i32 -12, 1) i32 @update_block_dimensions(ptr noundef initializes((100, 108), (128, 136)) %0) unnamed_addr #1 {
  %2 = getelementptr inbounds nuw i8, ptr %0, i64 128
  store i32 64, ptr %2, align 8, !tbaa !52
  %3 = getelementptr inbounds nuw i8, ptr %0, i64 132
  store i32 64, ptr %3, align 4, !tbaa !53
  %4 = getelementptr inbounds nuw i8, ptr %0, i64 124
  %5 = load i32, ptr %4, align 4, !tbaa !41
  %6 = add nsw i32 %5, 63
  %7 = sdiv i32 %6, 64
  %8 = getelementptr inbounds nuw i8, ptr %0, i64 100
  store i32 %7, ptr %8, align 4, !tbaa !78
  %9 = getelementptr inbounds nuw i8, ptr %0, i64 120
  %10 = load i32, ptr %9, align 8, !tbaa !40
  %11 = add nsw i32 %10, 63
  %12 = sdiv i32 %11, 64
  %13 = getelementptr inbounds nuw i8, ptr %0, i64 104
  store i32 %12, ptr %13, align 8, !tbaa !68
  %14 = mul nsw i32 %12, %7
  %15 = sext i32 %14 to i64
  %16 = getelementptr inbounds nuw i8, ptr %0, i64 84
  %17 = load i32, ptr %16, align 4, !tbaa !109
  %18 = sext i32 %17 to i64
  %19 = udiv i64 %18, 56
  %20 = icmp ult i64 %19, %15
  %21 = getelementptr inbounds nuw i8, ptr %0, i64 64
  %22 = load ptr, ptr %21, align 8, !tbaa !71
  br i1 %20, label %23, label %._crit_edge

23:                                               ; preds = %1
  %24 = sext i32 %7 to i64
  %narrow = mul nsw i32 %12, 56
  %25 = sext i32 %narrow to i64
  %26 = tail call ptr @av_realloc_array(ptr noundef %22, i64 noundef %24, i64 noundef %25) #9
  store ptr %26, ptr %21, align 8, !tbaa !71
  %27 = getelementptr inbounds nuw i8, ptr %0, i64 72
  %28 = load ptr, ptr %27, align 8, !tbaa !79
  %29 = load i32, ptr %13, align 8, !tbaa !68
  %30 = sext i32 %29 to i64
  %31 = load i32, ptr %8, align 4, !tbaa !78
  %32 = sext i32 %31 to i64
  %33 = mul nsw i64 %32, 56
  %34 = tail call ptr @av_realloc_array(ptr noundef %28, i64 noundef %30, i64 noundef %33) #9
  store ptr %34, ptr %27, align 8, !tbaa !79
  %35 = load ptr, ptr %21, align 8, !tbaa !71
  %.not = icmp eq ptr %35, null
  %.not42 = icmp eq ptr %34, null
  %or.cond = select i1 %.not, i1 true, i1 %.not42
  br i1 %or.cond, label %.sink.split, label %36

36:                                               ; preds = %23
  %37 = load i32, ptr %8, align 4, !tbaa !78
  %38 = load i32, ptr %13, align 8, !tbaa !68
  %39 = mul i32 %37, 56
  %40 = mul i32 %39, %38
  store i32 %40, ptr %16, align 4, !tbaa !109
  br label %._crit_edge

._crit_edge:                                      ; preds = %1, %36
  %41 = phi ptr [ %35, %36 ], [ %22, %1 ]
  %42 = getelementptr inbounds nuw i8, ptr %0, i64 24
  %43 = load ptr, ptr %42, align 8, !tbaa !43
  %44 = getelementptr inbounds nuw i8, ptr %0, i64 40
  %45 = load ptr, ptr %44, align 8, !tbaa !45
  tail call fastcc void @init_blocks(ptr noundef nonnull %0, ptr noundef %41, ptr noundef %43, ptr noundef %45)
  %46 = getelementptr inbounds nuw i8, ptr %0, i64 72
  %47 = load ptr, ptr %46, align 8, !tbaa !79
  %48 = getelementptr inbounds nuw i8, ptr %0, i64 32
  %49 = load ptr, ptr %48, align 8, !tbaa !44
  tail call fastcc void @init_blocks(ptr noundef nonnull %0, ptr noundef %47, ptr noundef %49, ptr noundef null)
  %50 = getelementptr inbounds nuw i8, ptr %0, i64 48
  %51 = getelementptr inbounds nuw i8, ptr %0, i64 56
  tail call void @av_fast_malloc(ptr noundef nonnull %50, ptr noundef nonnull %51, i64 noundef 24576) #9
  %52 = load ptr, ptr %50, align 8, !tbaa !83
  %.not43 = icmp eq ptr %52, null
  br i1 %.not43, label %.sink.split, label %54

.sink.split:                                      ; preds = %._crit_edge, %23
  %.str.6.sink = phi ptr [ @.str.5, %23 ], [ @.str.6, %._crit_edge ]
  %53 = load ptr, ptr %0, align 8, !tbaa !27
  tail call void (ptr, i32, ptr, ...) @av_log(ptr noundef %53, i32 noundef 16, ptr noundef nonnull %.str.6.sink) #9
  br label %54

54:                                               ; preds = %.sink.split, %._crit_edge
  %.0 = phi i32 [ 0, %._crit_edge ], [ -12, %.sink.split ]
  ret i32 %.0
}